; Function Attrs: nounwind sspstrong uwtable
define internal i64 @each_with_index_i(i64 %0, i64 noundef %1, i32 noundef %2, ptr noundef %3, i64 %4) #0 {
  %6 = tail call ptr @rb_current_ifunc() #14
  %7 = tail call i64 @rb_int_succ(i64 noundef %1) #14
  %8 = inttoptr i64 %7 to ptr
  %9 = getelementptr inbounds nuw i8, ptr %6, i64 24
  store ptr %8, ptr %9, align 8, !tbaa !114
  switch i32 %2, label %12 [
    i32 0, label %rb_enum_values_pack.exit
    i32 1, label %10
  ]

10:                                               ; preds = %5
  %11 = load i64, ptr %3, align 8, !tbaa !7
  br label %rb_enum_values_pack.exit

12:                                               ; preds = %5
  %13 = sext i32 %2 to i64
  %14 = tail call i64 @rb_ary_new_from_values(i64 noundef %13, ptr noundef %3) #14
  br label %rb_enum_values_pack.exit

rb_enum_values_pack.exit:                         ; preds = %5, %10, %12
  %.0.i = phi i64 [ %11, %10 ], [ %14, %12 ], [ 4, %5 ]
  %15 = tail call i64 (i32, ...) @rb_yield_values(i32 noundef 2, i64 noundef %.0.i, i64 noundef %1) #14
  ret i64 %15
}